target datalayout = "e-m:e-p270:32:32-p271:32:32-p272:64:64-i64:64-i128:128-f80:128-n8:16:32:64-S128"
target triple = "x86_64-unknown-linux-gnu"

%"class.std::valarray" = type { i64, ptr }

; Function Attrs: inlinehint mustprogress nounwind uwtable
define linkonce_odr void @_ZNSt16_Array_init_ctorIbLb1EE8_S_do_itEPbS1_b(ptr noundef %__b, ptr noundef %__e, i1 noundef zeroext %__t) #1 comdat align 2 {
entry:
  %__b.addr = alloca ptr, align 8
  %__e.addr = alloca ptr, align 8
  %__t.addr = alloca i8, align 1
  store ptr %__b, ptr %__b.addr, align 8, !tbaa !3
  store ptr %__e, ptr %__e.addr, align 8, !tbaa !3
  %storedv = zext i1 %__t to i8
  store i8 %storedv, ptr %__t.addr, align 1, !tbaa !40
  br label %while.cond

while.cond:                                       ; preds = %while.body, %entry
  %0 = load ptr, ptr %__b.addr, align 8, !tbaa !3
  %1 = load ptr, ptr %__e.addr, align 8, !tbaa !3
  %cmp = icmp ne ptr %0, %1
  br i1 %cmp, label %while.body, label %while.end

while.body:                                       ; preds = %while.cond
  %2 = load i8, ptr %__t.addr, align 1, !tbaa !40, !range !45, !noundef !46
  %loadedv = trunc i8 %2 to i1
  %3 = load ptr, ptr %__b.addr, align 8, !tbaa !3
  %incdec.ptr = getelementptr inbounds nuw i8, ptr %3, i32 1
  store ptr %incdec.ptr, ptr %__b.addr, align 8, !tbaa !3
  %storedv1 = zext i1 %loadedv to i8
  store i8 %storedv1, ptr %3, align 1, !tbaa !40
  br label %while.cond, !llvm.loop !60

while.end:                                        ; preds = %while.cond
  ret void
}

; Function Attrs: inlinehint mustprogress uwtable
define linkonce_odr void @_ZSt25__valarray_fill_constructIbEvPT_S1_S0_(ptr noundef %__b, ptr noundef %__e, i1 noundef zeroext %__t) #6 comdat {
entry:
  %__b.addr = alloca ptr, align 8
  %__e.addr = alloca ptr, align 8
  %__t.addr = alloca i8, align 1
  store ptr %__b, ptr %__b.addr, align 8, !tbaa !3
  store ptr %__e, ptr %__e.addr, align 8, !tbaa !3
  %storedv = zext i1 %__t to i8
  store i8 %storedv, ptr %__t.addr, align 1, !tbaa !40
  %0 = load ptr, ptr %__b.addr, align 8, !tbaa !3
  %1 = load ptr, ptr %__e.addr, align 8, !tbaa !3
  %2 = load i8, ptr %__t.addr, align 1, !tbaa !40, !range !45, !noundef !46
  %loadedv = trunc i8 %2 to i1
  call void @_ZNSt16_Array_init_ctorIbLb1EE8_S_do_itEPbS1_b(ptr noundef %0, ptr noundef %1, i1 noundef zeroext %loadedv)
  ret void
}

; Function Attrs: inlinehint mustprogress uwtable
define linkonce_odr noalias noundef ptr @_ZSt22__valarray_get_storageIbEPT_m(i64 noundef %__n) #6 comdat {
entry:
  %__n.addr = alloca i64, align 8
  store i64 %__n, ptr %__n.addr, align 8, !tbaa !28
  %0 = load i64, ptr %__n.addr, align 8, !tbaa !28
  %mul = mul i64 %0, 1
  %call = call noalias noundef nonnull ptr @_Znwm(i64 noundef %mul) #21
  ret ptr %call
}

; Function Attrs: inlinehint mustprogress uwtable
define linkonce_odr void @_ZNSt8valarrayIbEC2ERKbm(ptr noundef nonnull align 8 dereferenceable(16) %this, ptr noundef nonnull align 1 dereferenceable(1) %__t, i64 noundef %__n) unnamed_addr #6 comdat align 2 {
entry:
  %this.addr = alloca ptr, align 8
  %__t.addr = alloca ptr, align 8
  %__n.addr = alloca i64, align 8
  store ptr %this, ptr %this.addr, align 8, !tbaa !3
  store ptr %__t, ptr %__t.addr, align 8, !tbaa !3
  store i64 %__n, ptr %__n.addr, align 8, !tbaa !28
  %this1 = load ptr, ptr %this.addr, align 8
  %_M_size = getelementptr inbounds nuw %"class.std::valarray", ptr %this1, i32 0, i32 0
  %0 = load i64, ptr %__n.addr, align 8, !tbaa !28
  store i64 %0, ptr %_M_size, align 8, !tbaa !42
  %_M_data = getelementptr inbounds nuw %"class.std::valarray", ptr %this1, i32 0, i32 1
  %1 = load i64, ptr %__n.addr, align 8, !tbaa !28
  %call = call noalias noundef ptr @_ZSt22__valarray_get_storageIbEPT_m(i64 noundef %1)
  store ptr %call, ptr %_M_data, align 8, !tbaa !44
  %_M_data2 = getelementptr inbounds nuw %"class.std::valarray", ptr %this1, i32 0, i32 1
  %2 = load ptr, ptr %_M_data2, align 8, !tbaa !44
  %_M_data3 = getelementptr inbounds nuw %"class.std::valarray", ptr %this1, i32 0, i32 1
  %3 = load ptr, ptr %_M_data3, align 8, !tbaa !44
  %4 = load i64, ptr %__n.addr, align 8, !tbaa !28
  %add.ptr = getelementptr inbounds nuw i8, ptr %3, i64 %4
  %5 = load ptr, ptr %__t.addr, align 8, !tbaa !3
  %6 = load i8, ptr %5, align 1, !tbaa !40, !range !45, !noundef !46
  %loadedv = trunc i8 %6 to i1
  call void @_ZSt25__valarray_fill_constructIbEvPT_S1_S0_(ptr noundef %2, ptr noundef %add.ptr, i1 noundef zeroext %loadedv)
  ret void
}

; Function Attrs: mustprogress uwtable
define void @_ZNK8QuantLib21TriggeredSwapExercise14isExerciseTimeEv(ptr dead_on_unwind noalias writable sret(%"class.std::valarray") align 8 %agg.result, ptr noundef nonnull align 8 dereferenceable(248) %this) unnamed_addr #0 align 2 {
entry:
  %result.ptr = alloca ptr, align 8
  %this.addr = alloca ptr, align 8
  %ref.tmp = alloca i8, align 1
  store ptr %agg.result, ptr %result.ptr, align 8
  store ptr %this, ptr %this.addr, align 8, !tbaa !3
  %this1 = load ptr, ptr %this.addr, align 8
  call void @llvm.lifetime.start.p0(i64 1, ptr %ref.tmp) #16
  store i8 1, ptr %ref.tmp, align 1, !tbaa !40
  %vtable = load ptr, ptr %this1, align 8, !tbaa !7
  %vfn = getelementptr inbounds ptr, ptr %vtable, i64 2
  %0 = load ptr, ptr %vfn, align 8
  %call = call noundef i64 %0(ptr noundef nonnull align 8 dereferenceable(248) %this1)
  call void @_ZNSt8valarrayIbEC2ERKbm(ptr noundef nonnull align 8 dereferenceable(16) %agg.result, ptr noundef nonnull align 1 dereferenceable(1) %ref.tmp, i64 noundef %call)
  call void @llvm.lifetime.end.p0(i64 1, ptr %ref.tmp) #16
  ret void
}