; Function Attrs: mustprogress uwtable
define void @_ZNK8QuantLib21TriggeredSwapExercise14isExerciseTimeEv(ptr dead_on_unwind noalias nocapture writable writeonly sret(%"class.std::valarray") align 8 %agg.result, ptr noundef nonnull align 8 dereferenceable(248) %this) unnamed_addr #0 align 2 {
entry:
  %vtable = load ptr, ptr %this, align 8, !tbaa !3
  %vfn = getelementptr inbounds i8, ptr %vtable, i64 16
  %0 = load ptr, ptr %vfn, align 8
  %call = tail call noundef i64 %0(ptr noundef nonnull align 8 dereferenceable(248) %this)
  store i64 %call, ptr %agg.result, align 8, !tbaa !43
  %_M_data.i = getelementptr inbounds nuw i8, ptr %agg.result, i64 8
  %call.i.i = tail call noalias noundef nonnull ptr @_Znwm(i64 noundef %call) #24
  store ptr %call.i.i, ptr %_M_data.i, align 8, !tbaa !45
  %cmp.not2.i.i.i = icmp eq i64 %call, 0
  br i1 %cmp.not2.i.i.i, label %_ZNSt8valarrayIbEC2ERKbm.exit, label %while.body.preheader.i.i.i

while.body.preheader.i.i.i:                       ; preds = %entry
  tail call void @llvm.memset.p0.i64(ptr nonnull align 1 %call.i.i, i8 1, i64 %call, i1 false), !tbaa !46
  br label %_ZNSt8valarrayIbEC2ERKbm.exit

_ZNSt8valarrayIbEC2ERKbm.exit:                    ; preds = %entry, %while.body.preheader.i.i.i
  ret void
}